target datalayout = "e-m:e-p270:32:32-p271:32:32-p272:64:64-i64:64-i128:128-f80:128-n8:16:32:64-S128"
target triple = "x86_64-pc-linux-gnu"

@hf_afp_pad = internal global i32 0, align 4
@hf_afp_passwd = internal global i32 0, align 4
@hf_afp_random = internal global i32 0, align 4
@.str.1067 = private unnamed_addr constant [17 x i8] c"Cleartxt passwrd\00", align 1
@.str.1068 = private unnamed_addr constant [10 x i8] c"DHCAST128\00", align 1
@.str.1069 = private unnamed_addr constant [23 x i8] c"2-Way Randnum exchange\00", align 1

; Function Attrs: null_pointer_is_valid sspstrong uwtable
define internal i32 @decode_uam_parameters(ptr noundef %0, i32 noundef %1, ptr noundef %2, ptr noundef %3, i32 noundef %4) #1 {
  %6 = alloca i32, align 4
  %7 = alloca ptr, align 8
  %8 = alloca i32, align 4
  %9 = alloca ptr, align 8
  %10 = alloca ptr, align 8
  %11 = alloca i32, align 4
  %12 = alloca i32, align 4
  %13 = alloca i32, align 4
  store ptr %0, ptr %7, align 8
  store i32 %1, ptr %8, align 4
  store ptr %2, ptr %9, align 8
  store ptr %3, ptr %10, align 8
  store i32 %4, ptr %11, align 4
  call void @llvm.lifetime.start.p0(i64 4, ptr %12) #8
  %14 = load ptr, ptr %7, align 8
  %15 = load i32, ptr %8, align 4
  %16 = sext i32 %15 to i64
  %17 = call i32 @g_ascii_strncasecmp(ptr noundef %14, ptr noundef @.str.1067, i64 noundef %16)
  %18 = icmp ne i32 %17, 0
  br i1 %18, label %41, label %19

19:                                               ; preds = %5
  %20 = load i32, ptr %11, align 4
  %21 = and i32 %20, 1
  %22 = icmp ne i32 %21, 0
  br i1 %22, label %23, label %31

23:                                               ; preds = %19
  %24 = load ptr, ptr %10, align 8
  %25 = load i32, ptr @hf_afp_pad, align 4
  %26 = load ptr, ptr %9, align 8
  %27 = load i32, ptr %11, align 4
  %28 = call ptr @proto_tree_add_item(ptr noundef %24, i32 noundef %25, ptr noundef %26, i32 noundef %27, i32 noundef 1, i32 noundef 0)
  %29 = load i32, ptr %11, align 4
  %30 = add i32 %29, 1
  store i32 %30, ptr %11, align 4
  br label %31

31:                                               ; preds = %23, %19
  store i32 8, ptr %12, align 4
  %32 = load ptr, ptr %10, align 8
  %33 = load i32, ptr @hf_afp_passwd, align 4
  %34 = load ptr, ptr %9, align 8
  %35 = load i32, ptr %11, align 4
  %36 = load i32, ptr %12, align 4
  %37 = call ptr @proto_tree_add_item(ptr noundef %32, i32 noundef %33, ptr noundef %34, i32 noundef %35, i32 noundef %36, i32 noundef 2)
  %38 = load i32, ptr %12, align 4
  %39 = load i32, ptr %11, align 4
  %40 = add i32 %39, %38
  store i32 %40, ptr %11, align 4
  br label %79

41:                                               ; preds = %5
  %42 = load ptr, ptr %7, align 8
  %43 = load i32, ptr %8, align 4
  %44 = sext i32 %43 to i64
  %45 = call i32 @g_ascii_strncasecmp(ptr noundef %42, ptr noundef @.str.1068, i64 noundef %44)
  %46 = icmp ne i32 %45, 0
  br i1 %46, label %69, label %47

47:                                               ; preds = %41
  %48 = load i32, ptr %11, align 4
  %49 = and i32 %48, 1
  %50 = icmp ne i32 %49, 0
  br i1 %50, label %51, label %59

51:                                               ; preds = %47
  %52 = load ptr, ptr %10, align 8
  %53 = load i32, ptr @hf_afp_pad, align 4
  %54 = load ptr, ptr %9, align 8
  %55 = load i32, ptr %11, align 4
  %56 = call ptr @proto_tree_add_item(ptr noundef %52, i32 noundef %53, ptr noundef %54, i32 noundef %55, i32 noundef 1, i32 noundef 0)
  %57 = load i32, ptr %11, align 4
  %58 = add i32 %57, 1
  store i32 %58, ptr %11, align 4
  br label %59

59:                                               ; preds = %51, %47
  store i32 16, ptr %12, align 4
  %60 = load ptr, ptr %10, align 8
  %61 = load i32, ptr @hf_afp_random, align 4
  %62 = load ptr, ptr %9, align 8
  %63 = load i32, ptr %11, align 4
  %64 = load i32, ptr %12, align 4
  %65 = call ptr @proto_tree_add_item(ptr noundef %60, i32 noundef %61, ptr noundef %62, i32 noundef %63, i32 noundef %64, i32 noundef 0)
  %66 = load i32, ptr %12, align 4
  %67 = load i32, ptr %11, align 4
  %68 = add i32 %67, %66
  store i32 %68, ptr %11, align 4
  br label %78

69:                                               ; preds = %41
  %70 = load ptr, ptr %7, align 8
  %71 = load i32, ptr %8, align 4
  %72 = sext i32 %71 to i64
  %73 = call i32 @g_ascii_strncasecmp(ptr noundef %70, ptr noundef @.str.1069, i64 noundef %72)
  %74 = icmp ne i32 %73, 0
  br i1 %74, label %77, label %75

75:                                               ; preds = %69
  %76 = load i32, ptr %11, align 4
  store i32 %76, ptr %6, align 4
  store i32 1, ptr %13, align 4
  br label %81

77:                                               ; preds = %69
  br label %78

78:                                               ; preds = %77, %59
  br label %79

79:                                               ; preds = %78, %31
  %80 = load i32, ptr %11, align 4
  store i32 %80, ptr %6, align 4
  store i32 1, ptr %13, align 4
  br label %81

81:                                               ; preds = %79, %75
  call void @llvm.lifetime.end.p0(i64 4, ptr %12) #8
  %82 = load i32, ptr %6, align 4
  ret i32 %82
}