; Function Attrs: null_pointer_is_valid sspstrong uwtable
define internal fastcc range(i32 4, 131610) i32 @decode_uam_parameters(ptr noundef %0, i32 noundef range(i32 0, 256) %1, ptr noundef %2, ptr noundef %3, i32 noundef range(i32 4, 131593) %4) unnamed_addr #1 {
  %6 = zext nneg i32 %1 to i64
  %7 = tail call i32 @g_ascii_strncasecmp(ptr noundef %0, ptr noundef nonnull @.str.1067, i64 noundef %6)
  %.not = icmp eq i32 %7, 0
  br i1 %.not, label %8, label %18

8:                                                ; preds = %5
  %9 = and i32 %4, 1
  %.not31 = icmp eq i32 %9, 0
  br i1 %.not31, label %14, label %10

10:                                               ; preds = %8
  %11 = load i32, ptr @hf_afp_pad, align 4
  %12 = tail call ptr @proto_tree_add_item(ptr noundef %3, i32 noundef %11, ptr noundef %2, i32 noundef %4, i32 noundef 1, i32 noundef 0)
  %13 = add nuw nsw i32 %4, 1
  br label %14

14:                                               ; preds = %10, %8
  %.0 = phi i32 [ %13, %10 ], [ %4, %8 ]
  %15 = load i32, ptr @hf_afp_passwd, align 4
  %16 = tail call ptr @proto_tree_add_item(ptr noundef %3, i32 noundef %15, ptr noundef %2, i32 noundef %.0, i32 noundef 8, i32 noundef 2)
  %17 = add nuw nsw i32 %.0, 8
  br label %32

18:                                               ; preds = %5
  %19 = tail call i32 @g_ascii_strncasecmp(ptr noundef %0, ptr noundef nonnull @.str.1068, i64 noundef %6)
  %.not32 = icmp eq i32 %19, 0
  br i1 %.not32, label %20, label %30

20:                                               ; preds = %18
  %21 = and i32 %4, 1
  %.not33 = icmp eq i32 %21, 0
  br i1 %.not33, label %26, label %22

22:                                               ; preds = %20
  %23 = load i32, ptr @hf_afp_pad, align 4
  %24 = tail call ptr @proto_tree_add_item(ptr noundef %3, i32 noundef %23, ptr noundef %2, i32 noundef %4, i32 noundef 1, i32 noundef 0)
  %25 = add nuw nsw i32 %4, 1
  br label %26

26:                                               ; preds = %22, %20
  %.2 = phi i32 [ %25, %22 ], [ %4, %20 ]
  %27 = load i32, ptr @hf_afp_random, align 4
  %28 = tail call ptr @proto_tree_add_item(ptr noundef %3, i32 noundef %27, ptr noundef %2, i32 noundef %.2, i32 noundef 16, i32 noundef 0)
  %29 = add nuw nsw i32 %.2, 16
  br label %32

30:                                               ; preds = %18
  %31 = tail call i32 @g_ascii_strncasecmp(ptr noundef %0, ptr noundef nonnull @.str.1069, i64 noundef %6)
  br label %32

32:                                               ; preds = %30, %14, %26
  %.030 = phi i32 [ %4, %30 ], [ %29, %26 ], [ %17, %14 ]
  ret i32 %.030
}